; Function Attrs: mustprogress uwtable
define dso_local void @_ZNK20cmExtraKateGenerator15GetPathBasenameERKNSt7__cxx1112basic_stringIcSt11char_traitsIcESaIcEEE(ptr dead_on_unwind noalias nonnull writable sret(%"class.std::__cxx11::basic_string") align 8 %0, ptr nocapture nonnull readnone align 8 %1, ptr noundef nonnull align 8 dereferenceable(32) %2) local_unnamed_addr #4 align 2 personality ptr @__gxx_personality_v0 {
  %4 = alloca %"class.std::__cxx11::basic_string", align 8
  tail call void @_ZNSt7__cxx1112basic_stringIcSt11char_traitsIcESaIcEEC1ERKS4_(ptr noundef nonnull align 8 dereferenceable(32) %0, ptr noundef nonnull align 8 dereferenceable(32) %2)
  br label %5

5:                                                ; preds = %.critedge2, %3
  %6 = tail call noundef zeroext i1 @_ZNKSt7__cxx1112basic_stringIcSt11char_traitsIcESaIcEE5emptyEv(ptr noundef nonnull align 8 dereferenceable(32) %0) #16
  br i1 %6, label %.critedge, label %7

7:                                                ; preds = %5
  %8 = tail call noundef nonnull align 1 dereferenceable(1) ptr @_ZNSt7__cxx1112basic_stringIcSt11char_traitsIcESaIcEE4backEv(ptr noundef nonnull align 8 dereferenceable(32) %0) #16
  %9 = load i8, ptr %8, align 1
  %10 = icmp eq i8 %9, 47
  br i1 %10, label %.critedge2, label %11

11:                                               ; preds = %7
  %12 = tail call noundef nonnull align 1 dereferenceable(1) ptr @_ZNSt7__cxx1112basic_stringIcSt11char_traitsIcESaIcEE4backEv(ptr noundef nonnull align 8 dereferenceable(32) %0) #16
  %13 = load i8, ptr %12, align 1
  %14 = icmp eq i8 %13, 92
  br i1 %14, label %.critedge2, label %.critedge

.critedge2:                                       ; preds = %7, %11
  %15 = tail call noundef i64 @_ZNKSt7__cxx1112basic_stringIcSt11char_traitsIcESaIcEE4sizeEv(ptr noundef nonnull align 8 dereferenceable(32) %0) #16
  %16 = add i64 %15, -1
  invoke void @_ZNSt7__cxx1112basic_stringIcSt11char_traitsIcESaIcEE6resizeEm(ptr noundef nonnull align 8 dereferenceable(32) %0, i64 noundef %16)
          to label %5 unwind label %.loopexit, !llvm.loop !8

.loopexit:                                        ; preds = %.critedge2
  %lpad.loopexit = landingpad { ptr, i32 }
          cleanup
  br label %17

.loopexit.split-lp:                               ; preds = %19
  %lpad.loopexit.split-lp = landingpad { ptr, i32 }
          cleanup
  br label %17

17:                                               ; preds = %.loopexit.split-lp, %.loopexit
  %lpad.phi = phi { ptr, i32 } [ %lpad.loopexit, %.loopexit ], [ %lpad.loopexit.split-lp, %.loopexit.split-lp ]
  call void @_ZNSt7__cxx1112basic_stringIcSt11char_traitsIcESaIcEED1Ev(ptr noundef nonnull align 8 dereferenceable(32) %0) #16
  resume { ptr, i32 } %lpad.phi

.critedge:                                        ; preds = %5, %11
  %18 = tail call noundef i64 @_ZNKSt7__cxx1112basic_stringIcSt11char_traitsIcESaIcEE12find_last_ofEPKcm(ptr noundef nonnull align 8 dereferenceable(32) %0, ptr noundef nonnull @.str.68, i64 noundef -1) #16
  %.not = icmp eq i64 %18, -1
  br i1 %.not, label %23, label %19

19:                                               ; preds = %.critedge
  %20 = add nuw i64 %18, 1
  invoke void @_ZNKSt7__cxx1112basic_stringIcSt11char_traitsIcESaIcEE6substrEmm(ptr dead_on_unwind nonnull writable sret(%"class.std::__cxx11::basic_string") align 8 %4, ptr noundef nonnull align 8 dereferenceable(32) %0, i64 noundef %20, i64 noundef -1)
          to label %21 unwind label %.loopexit.split-lp

21:                                               ; preds = %19
  %22 = call noundef nonnull align 8 dereferenceable(32) ptr @_ZNSt7__cxx1112basic_stringIcSt11char_traitsIcESaIcEEaSEOS4_(ptr noundef nonnull align 8 dereferenceable(32) %0, ptr noundef nonnull align 8 dereferenceable(32) %4) #16
  call void @_ZNSt7__cxx1112basic_stringIcSt11char_traitsIcESaIcEED1Ev(ptr noundef nonnull align 8 dereferenceable(32) %4) #16
  br label %23

23:                                               ; preds = %.critedge, %21
  ret void
}